(dp0
S'f_sol'
p1
(dp2
(I29
I31
I1
tp3
F1521.7227777777787
s(I39
I17
I1
tp4
F263.6144444444445
s(I31
I24
I1
tp5
F412.29777777777804
s(I29
I27
I1
tp6
F590.8561111111112
s(I27
I32
I1
tp7
F583.3766666666668
s(I27
I30
I1
tp8
F36.14133333333097
s(I33
I27
I1
tp9
F5.232777777777779
s(I25
I29
I1
tp10
F466.397777777778
s(I28
I26
I1
tp11
F185.33055555555552
s(I28
I32
I1
tp12
F267.10666666666685
s(I25
I32
I1
tp13
F313.94500000000005
s(I27
I35
I1
tp14
F1319.3100000000002
s(I33
I31
I1
tp15
F1024.1527777777783
s(I36
I24
I1
tp16
F22.275000000000002
s(I32
I30
I1
tp17
F4.970555555555556
s(I33
I32
I1
tp18
F363.97888888888895
s(I23
I46
I1
tp19
F72.35888888888893
s(I31
I30
I1
tp20
F349.94944444444457
s(I31
I45
I1
tp21
F1.9122222222222225
s(I30
I31
I1
tp22
F55.08111111111114
s(I28
I24
I1
tp23
F342.14000000000004
s(I30
I33
I1
tp24
F574.2227777777779
s(I31
I25
I1
tp25
F191.13277777777787
s(I31
I26
I1
tp26
F26.532222222222234
s(I27
I33
I1
tp27
F1049.0805555555562
s(I26
I43
I1
tp28
F474.0272222222224
s(I33
I25
I1
tp29
F31.482222222222227
s(I26
I37
I1
tp30
F343.8644444444446
s(I33
I23
I1
tp31
F51.16833333333335
s(I24
I42
I1
tp32
F204.7222222222223
s(I24
I45
I1
tp33
F110.89555555555566
ssS'g_sol'
p34
(dp35
(I26
I43
I1
I27
I42
tp36
F290.60800000000006
s(I33
I32
I1
I34
I33
tp37
F447.30133333333345
s(I24
I42
I1
I23
I42
tp38
F49.25666666666668
s(I27
I29
I1
I27
I30
tp39
F34.36306666666951
s(I27
I30
I1
I27
I29
tp40
F2180.276000000001
s(I27
I30
I1
I28
I29
tp41
F183.58266666666668
s(I25
I29
I1
I24
I28
tp42
F143.80533333333344
s(I24
I45
I1
I25
I44
tp43
F36.500666666666675
s(I31
I24
I1
I31
I23
tp44
F230.9620000000001
s(I29
I27
I1
I30
I28
tp45
F263.7200000000002
s(I27
I42
I1
I26
I42
tp46
F225.91066666666669
s(I26
I42
I1
I25
I43
tp47
F1431.586666666667
s(I25
I29
I1
I25
I30
tp48
F259.17200000000014
ssS'sol_list'
p49
(lp50
sS'x_sol'
p51
(dp52
sS'a_sol'
p53
(dp54
(I29
I31
I1
tp55
F1521.7227777777782
s(I39
I17
I1
tp56
F263.6144444444445
s(I25
I43
I1
tp57
F1192.9888888888893
s(I25
I44
I1
tp58
F30.41722222222223
s(I25
I30
I1
tp59
F215.97666666666674
s(I24
I28
I1
tp60
F119.83777777777783
s(I31
I24
I1
tp61
F412.2977777777779
s(I27
I29
I1
tp62
F1816.8966666666674
s(I27
I32
I1
tp63
F583.3766666666668
s(I27
I30
I1
tp64
F64.77722222222224
s(I33
I27
I1
tp65
F5.232777777777779
s(I25
I29
I1
tp66
F466.3977777777779
s(I34
I33
I1
tp67
F372.75111111111113
s(I28
I26
I1
tp68
F185.33055555555552
s(I28
I32
I1
tp69
F267.10666666666674
s(I25
I32
I1
tp70
F313.94500000000005
s(I27
I35
I1
tp71
F1319.3100000000002
s(I33
I31
I1
tp72
F1024.1527777777783
s(I29
I27
I1
tp73
F590.8561111111112
s(I36
I24
I1
tp74
F22.275000000000002
s(I26
I42
I1
tp75
F188.25888888888892
s(I27
I42
I1
tp76
F242.17333333333335
s(I32
I30
I1
tp77
F4.970555555555556
s(I31
I30
I1
tp78
F349.94944444444457
s(I23
I46
I1
tp79
F72.3588888888889
s(I33
I32
I1
tp80
F363.97888888888895
s(I31
I45
I1
tp81
F1.9122222222222225
s(I30
I31
I1
tp82
F55.08111111111113
s(I28
I24
I1
tp83
F342.14000000000004
s(I31
I23
I1
tp84
F192.46833333333336
s(I30
I33
I1
tp85
F574.2227777777779
s(I31
I25
I1
tp86
F191.13277777777782
s(I31
I26
I1
tp87
F26.532222222222227
s(I27
I33
I1
tp88
F1049.0805555555562
s(I24
I45
I1
tp89
F110.89555555555563
s(I33
I25
I1
tp90
F31.482222222222227
s(I23
I42
I1
tp91
F41.047222222222224
s(I30
I28
I1
tp92
F219.76666666666677
s(I26
I37
I1
tp93
F343.8644444444445
s(I33
I23
I1
tp94
F51.16833333333335
s(I28
I29
I1
tp95
F152.98555555555552
s(I24
I42
I1
tp96
F204.72222222222226
s(I26
I43
I1
tp97
F474.02722222222224
ss.